target datalayout = "e-m:e-p270:32:32-p271:32:32-p272:64:64-i64:64-i128:128-f80:128-n8:16:32:64-S128"
target triple = "x86_64-pc-linux-gnu"

%struct.PKCS12_SAFEBAG_st = type { ptr, %union.anon, ptr }
%union.anon = type { ptr }

@.str = private unnamed_addr constant [36 x i8] c"../openssl/crypto/pkcs12/p12_sbag.c\00", align 1
@__func__.PKCS12_SAFEBAG_create0_pkcs8 = private unnamed_addr constant [29 x i8] c"PKCS12_SAFEBAG_create0_pkcs8\00", align 1

; Function Attrs: nounwind uwtable
define ptr @PKCS12_SAFEBAG_create0_pkcs8(ptr noundef %0) #0 {
  %2 = alloca ptr, align 8
  %3 = alloca ptr, align 8
  %4 = alloca ptr, align 8
  %5 = alloca i32, align 4
  store ptr %0, ptr %3, align 8, !tbaa !32
  call void @llvm.lifetime.start.p0(i64 8, ptr %4) #3
  %6 = call ptr @PKCS12_SAFEBAG_new()
  store ptr %6, ptr %4, align 8, !tbaa !3
  %7 = load ptr, ptr %4, align 8, !tbaa !3
  %8 = icmp eq ptr %7, null
  br i1 %8, label %9, label %10

9:                                                ; preds = %1
  call void @ERR_new()
  call void @ERR_set_debug(ptr noundef @.str, i32 noundef 230, ptr noundef @__func__.PKCS12_SAFEBAG_create0_pkcs8)
  call void (i32, i32, ptr, ...) @ERR_set_error(i32 noundef 35, i32 noundef 524301, ptr noundef null)
  store ptr null, ptr %2, align 8
  store i32 1, ptr %5, align 4
  br label %18

10:                                               ; preds = %1
  %11 = call ptr @OBJ_nid2obj(i32 noundef 151)
  %12 = load ptr, ptr %4, align 8, !tbaa !3
  %13 = getelementptr inbounds nuw %struct.PKCS12_SAFEBAG_st, ptr %12, i32 0, i32 0
  store ptr %11, ptr %13, align 8, !tbaa !17
  %14 = load ptr, ptr %3, align 8, !tbaa !32
  %15 = load ptr, ptr %4, align 8, !tbaa !3
  %16 = getelementptr inbounds nuw %struct.PKCS12_SAFEBAG_st, ptr %15, i32 0, i32 1
  store ptr %14, ptr %16, align 8, !tbaa !16
  %17 = load ptr, ptr %4, align 8, !tbaa !3
  store ptr %17, ptr %2, align 8
  store i32 1, ptr %5, align 4
  br label %18

18:                                               ; preds = %10, %9
  call void @llvm.lifetime.end.p0(i64 8, ptr %4) #3
  %19 = load ptr, ptr %2, align 8
  ret ptr %19
}