; Function Attrs: nounwind uwtable
define ptr @PKCS12_SAFEBAG_create0_pkcs8(ptr noundef %0) local_unnamed_addr #0 {
  %2 = tail call ptr @PKCS12_SAFEBAG_new() #4
  %3 = icmp eq ptr %2, null
  br i1 %3, label %4, label %5

4:                                                ; preds = %1
  tail call void @ERR_new() #4
  tail call void @ERR_set_debug(ptr noundef nonnull @.str, i32 noundef 230, ptr noundef nonnull @__func__.PKCS12_SAFEBAG_create0_pkcs8) #4
  tail call void (i32, i32, ptr, ...) @ERR_set_error(i32 noundef 35, i32 noundef 524301, ptr noundef null) #4
  br label %8

5:                                                ; preds = %1
  %6 = tail call ptr @OBJ_nid2obj(i32 noundef 151) #4
  store ptr %6, ptr %2, align 8, !tbaa !10
  %7 = getelementptr inbounds nuw i8, ptr %2, i64 8
  store ptr %0, ptr %7, align 8, !tbaa !11
  br label %8

8:                                                ; preds = %5, %4
  ret ptr %2
}